target datalayout = "e-m:e-p270:32:32-p271:32:32-p272:64:64-i64:64-i128:128-f80:128-n8:16:32:64-S128"
target triple = "x86_64-pc-linux-gnu"

%struct.FunctionCallInfoBaseData = type { ptr, ptr, ptr, i32, i8, i16, [0 x %struct.NullableDatum] }
%struct.NullableDatum = type { i64, i8 }
%struct.rank_context = type { i64 }
%union.anon = type { double }

; Function Attrs: inlinehint nounwind uwtable
define internal i64 @Int64GetDatum(i64 noundef %0) #3 {
  %2 = alloca i64, align 8
  store i64 %0, ptr %2, align 8
  %3 = load i64, ptr %2, align 8
  ret i64 %3
}

; Function Attrs: inlinehint nounwind uwtable
define internal i64 @Float8GetDatum(double noundef %0) #3 {
  %2 = alloca double, align 8
  %3 = alloca %union.anon, align 8
  store double %0, ptr %2, align 8
  call void @llvm.lifetime.start.p0(i64 8, ptr %3) #5
  %4 = load double, ptr %2, align 8
  store double %4, ptr %3, align 8
  %5 = load i64, ptr %3, align 8
  %6 = call i64 @Int64GetDatum(i64 noundef %5)
  call void @llvm.lifetime.end.p0(i64 8, ptr %3) #5
  ret i64 %6
}

; Function Attrs: nounwind uwtable
define internal zeroext i1 @rank_up(ptr noundef %0) #0 {
  %2 = alloca ptr, align 8
  %3 = alloca i8, align 1
  %4 = alloca i64, align 8
  %5 = alloca ptr, align 8
  store ptr %0, ptr %2, align 8
  call void @llvm.lifetime.start.p0(i64 1, ptr %3) #5
  store i8 0, ptr %3, align 1
  call void @llvm.lifetime.start.p0(i64 8, ptr %4) #5
  %6 = load ptr, ptr %2, align 8
  %7 = call i64 @WinGetCurrentPosition(ptr noundef %6)
  store i64 %7, ptr %4, align 8
  call void @llvm.lifetime.start.p0(i64 8, ptr %5) #5
  %8 = load ptr, ptr %2, align 8
  %9 = call ptr @WinGetPartitionLocalMemory(ptr noundef %8, i64 noundef 8)
  store ptr %9, ptr %5, align 8
  %10 = load ptr, ptr %5, align 8
  %11 = getelementptr inbounds nuw %struct.rank_context, ptr %10, i32 0, i32 0
  %12 = load i64, ptr %11, align 8
  %13 = icmp eq i64 %12, 0
  br i1 %13, label %14, label %17

14:                                               ; preds = %1
  %15 = load ptr, ptr %5, align 8
  %16 = getelementptr inbounds nuw %struct.rank_context, ptr %15, i32 0, i32 0
  store i64 1, ptr %16, align 8
  br label %25

17:                                               ; preds = %1
  %18 = load ptr, ptr %2, align 8
  %19 = load i64, ptr %4, align 8
  %20 = sub i64 %19, 1
  %21 = load i64, ptr %4, align 8
  %22 = call zeroext i1 @WinRowsArePeers(ptr noundef %18, i64 noundef %20, i64 noundef %21)
  br i1 %22, label %24, label %23

23:                                               ; preds = %17
  store i8 1, ptr %3, align 1
  br label %24

24:                                               ; preds = %23, %17
  br label %25

25:                                               ; preds = %24, %14
  %26 = load ptr, ptr %2, align 8
  %27 = load i64, ptr %4, align 8
  call void @WinSetMarkPosition(ptr noundef %26, i64 noundef %27)
  %28 = load i8, ptr %3, align 1, !range !4, !noundef !5
  %29 = trunc i8 %28 to i1
  call void @llvm.lifetime.end.p0(i64 8, ptr %5) #5
  call void @llvm.lifetime.end.p0(i64 8, ptr %4) #5
  call void @llvm.lifetime.end.p0(i64 1, ptr %3) #5
  ret i1 %29
}

; Function Attrs: nounwind uwtable
define dso_local i64 @window_cume_dist(ptr noundef %0) #0 {
  %2 = alloca ptr, align 8
  %3 = alloca ptr, align 8
  %4 = alloca ptr, align 8
  %5 = alloca i8, align 1
  %6 = alloca i64, align 8
  %7 = alloca i64, align 8
  store ptr %0, ptr %2, align 8
  call void @llvm.lifetime.start.p0(i64 8, ptr %3) #5
  %8 = load ptr, ptr %2, align 8
  %9 = getelementptr inbounds nuw %struct.FunctionCallInfoBaseData, ptr %8, i32 0, i32 1
  %10 = load ptr, ptr %9, align 8
  store ptr %10, ptr %3, align 8
  call void @llvm.lifetime.start.p0(i64 8, ptr %4) #5
  call void @llvm.lifetime.start.p0(i64 1, ptr %5) #5
  call void @llvm.lifetime.start.p0(i64 8, ptr %6) #5
  %11 = load ptr, ptr %3, align 8
  %12 = call i64 @WinGetPartitionRowCount(ptr noundef %11)
  store i64 %12, ptr %6, align 8
  %13 = load ptr, ptr %3, align 8
  %14 = call zeroext i1 @rank_up(ptr noundef %13)
  %15 = zext i1 %14 to i8
  store i8 %15, ptr %5, align 1
  %16 = load ptr, ptr %3, align 8
  %17 = call ptr @WinGetPartitionLocalMemory(ptr noundef %16, i64 noundef 8)
  store ptr %17, ptr %4, align 8
  %18 = load i8, ptr %5, align 1, !range !4, !noundef !5
  %19 = trunc i8 %18 to i1
  br i1 %19, label %25, label %20

20:                                               ; preds = %1
  %21 = load ptr, ptr %4, align 8
  %22 = getelementptr inbounds nuw %struct.rank_context, ptr %21, i32 0, i32 0
  %23 = load i64, ptr %22, align 8
  %24 = icmp eq i64 %23, 1
  br i1 %24, label %25, label %54

25:                                               ; preds = %20, %1
  call void @llvm.lifetime.start.p0(i64 8, ptr %7) #5
  %26 = load ptr, ptr %3, align 8
  %27 = call i64 @WinGetCurrentPosition(ptr noundef %26)
  %28 = add i64 %27, 1
  %29 = load ptr, ptr %4, align 8
  %30 = getelementptr inbounds nuw %struct.rank_context, ptr %29, i32 0, i32 0
  store i64 %28, ptr %30, align 8
  %31 = load ptr, ptr %4, align 8
  %32 = getelementptr inbounds nuw %struct.rank_context, ptr %31, i32 0, i32 0
  %33 = load i64, ptr %32, align 8
  store i64 %33, ptr %7, align 8
  br label %34

34:                                               ; preds = %50, %25
  %35 = load i64, ptr %7, align 8
  %36 = load i64, ptr %6, align 8
  %37 = icmp slt i64 %35, %36
  br i1 %37, label %38, label %53

38:                                               ; preds = %34
  %39 = load ptr, ptr %3, align 8
  %40 = load i64, ptr %7, align 8
  %41 = sub i64 %40, 1
  %42 = load i64, ptr %7, align 8
  %43 = call zeroext i1 @WinRowsArePeers(ptr noundef %39, i64 noundef %41, i64 noundef %42)
  br i1 %43, label %45, label %44

44:                                               ; preds = %38
  br label %53

45:                                               ; preds = %38
  %46 = load ptr, ptr %4, align 8
  %47 = getelementptr inbounds nuw %struct.rank_context, ptr %46, i32 0, i32 0
  %48 = load i64, ptr %47, align 8
  %49 = add i64 %48, 1
  store i64 %49, ptr %47, align 8
  br label %50

50:                                               ; preds = %45
  %51 = load i64, ptr %7, align 8
  %52 = add i64 %51, 1
  store i64 %52, ptr %7, align 8
  br label %34, !llvm.loop !6

53:                                               ; preds = %44, %34
  call void @llvm.lifetime.end.p0(i64 8, ptr %7) #5
  br label %54

54:                                               ; preds = %53, %20
  %55 = load ptr, ptr %4, align 8
  %56 = getelementptr inbounds nuw %struct.rank_context, ptr %55, i32 0, i32 0
  %57 = load i64, ptr %56, align 8
  %58 = sitofp i64 %57 to double
  %59 = load i64, ptr %6, align 8
  %60 = sitofp i64 %59 to double
  %61 = fdiv double %58, %60
  %62 = call i64 @Float8GetDatum(double noundef %61)
  call void @llvm.lifetime.end.p0(i64 8, ptr %6) #5
  call void @llvm.lifetime.end.p0(i64 1, ptr %5) #5
  call void @llvm.lifetime.end.p0(i64 8, ptr %4) #5
  call void @llvm.lifetime.end.p0(i64 8, ptr %3) #5
  ret i64 %62
}