; Function Attrs: nounwind uwtable
define dso_local i64 @window_cume_dist(ptr noundef readonly captures(none) %0) local_unnamed_addr #0 {
  %2 = getelementptr inbounds nuw i8, ptr %0, i64 8
  %3 = load ptr, ptr %2, align 8
  %4 = tail call i64 @WinGetPartitionRowCount(ptr noundef %3) #6
  %5 = tail call i64 @WinGetCurrentPosition(ptr noundef %3) #6
  %6 = tail call ptr @WinGetPartitionLocalMemory(ptr noundef %3, i64 noundef 8) #6
  %7 = load i64, ptr %6, align 8
  %8 = icmp eq i64 %7, 0
  br i1 %8, label %9, label %10

9:                                                ; preds = %1
  store i64 1, ptr %6, align 8
  br label %rank_up.exit

10:                                               ; preds = %1
  %11 = add i64 %5, -1
  %12 = tail call zeroext i1 @WinRowsArePeers(ptr noundef %3, i64 noundef %11, i64 noundef %5) #6
  %not..i = xor i1 %12, true
  br label %rank_up.exit

rank_up.exit:                                     ; preds = %9, %10
  %.0.i = phi i1 [ false, %9 ], [ %not..i, %10 ]
  tail call void @WinSetMarkPosition(ptr noundef %3, i64 noundef %5) #6
  %13 = tail call ptr @WinGetPartitionLocalMemory(ptr noundef %3, i64 noundef 8) #6
  br i1 %.0.i, label %17, label %14

14:                                               ; preds = %rank_up.exit
  %15 = load i64, ptr %13, align 8
  %16 = icmp eq i64 %15, 1
  br i1 %16, label %17, label %.loopexit

17:                                               ; preds = %14, %rank_up.exit
  %18 = tail call i64 @WinGetCurrentPosition(ptr noundef %3) #6
  %19 = add i64 %18, 1
  store i64 %19, ptr %13, align 8
  %20 = icmp slt i64 %19, %4
  br i1 %20, label %.lr.ph, label %.loopexit

.lr.ph:                                           ; preds = %17, %23
  %.017 = phi i64 [ %25, %23 ], [ %19, %17 ]
  %21 = add i64 %.017, -1
  %22 = tail call zeroext i1 @WinRowsArePeers(ptr noundef %3, i64 noundef %21, i64 noundef %.017) #6
  %.pre.pre = load i64, ptr %13, align 8
  br i1 %22, label %23, label %.loopexit

23:                                               ; preds = %.lr.ph
  %24 = add i64 %.pre.pre, 1
  store i64 %24, ptr %13, align 8
  %25 = add i64 %.017, 1
  %exitcond.not = icmp eq i64 %25, %4
  br i1 %exitcond.not, label %.loopexit, label %.lr.ph, !llvm.loop !4

.loopexit:                                        ; preds = %.lr.ph, %23, %17, %14
  %26 = phi i64 [ %19, %17 ], [ %15, %14 ], [ %.pre.pre, %.lr.ph ], [ %24, %23 ]
  %27 = sitofp i64 %26 to double
  %28 = sitofp i64 %4 to double
  %29 = fdiv double %27, %28
  %30 = bitcast double %29 to i64
  ret i64 %30
}